; Function Attrs: mustprogress nofree norecurse nosync nounwind willreturn memory(argmem: write) uwtable
define hidden void @_ZN6google8protobuf27Struct_FieldsEntry_DoNotUseC2EPNS0_5ArenaE(ptr nocapture noundef nonnull writeonly align 8 dereferenceable(40) %this, ptr noundef %arena) unnamed_addr #5 align 2 personality ptr @__gxx_personality_v0 {
entry:
  %_internal_metadata_.i.i.i.i = getelementptr inbounds i8, ptr %this, i64 8
  %0 = ptrtoint ptr %arena to i64
  store i64 %0, ptr %_internal_metadata_.i.i.i.i, align 8
  %arrayinit.cur.i.ptr.i.i = getelementptr inbounds i8, ptr %this, i64 16
  store i32 0, ptr %arrayinit.cur.i.ptr.i.i, align 8
  %_cached_size_.i.i = getelementptr inbounds i8, ptr %this, i64 20
  store i32 0, ptr %_cached_size_.i.i, align 4
  %key_.i = getelementptr inbounds i8, ptr %this, i64 24
  store ptr @_ZN6google8protobuf8internal26fixed_address_empty_stringB5cxx11E, ptr %key_.i, align 8
  %value_.i = getelementptr inbounds i8, ptr %this, i64 32
  store ptr null, ptr %value_.i, align 8
  store ptr getelementptr inbounds ({ [13 x ptr] }, ptr @_ZTVN6google8protobuf27Struct_FieldsEntry_DoNotUseE, i64 0, i32 0, i64 2), ptr %this, align 8
  ret void
}